(dp1
S'output'
p2
S"<type 'exceptions.AttributeError'> 'DAL' object has no attribute 'comapny'"
p3
sS'layer'
p4
S'/Users/kurt/temp/realpython/web2py/py2manager/applications/py2manager/controllers/default.py'
p5
sS'code'
p6
S'# -*- coding: utf-8 -*-\n# this file is released under public domain and you can use without limitations\n\n#########################################################################\n## This is a sample controller\n## - index is the default action of any application\n## - user is required for authentication and authorization\n## - download is for downloading files uploaded in the db (does streaming)\n## - call exposes all registered services (none by default)\n#########################################################################\n\n@auth.requires_login()\ndef index():\n    project_form = SQLFORM(db.project).process()\n    projects = db(db.project).select()\n    users = db(db.auth_user).select()\n    companies = db(db.company).select()\n    return locals()\n\ndef tester():\n    return locals()\n    \ndef user():\n    """\n    exposes:\n    http://..../[app]/default/user/login\n    http://..../[app]/default/user/logout\n    http://..../[app]/default/user/register\n    http://..../[app]/default/user/profile\n    http://..../[app]/default/user/retrieve_password\n    http://..../[app]/default/user/change_password\n    http://..../[app]/default/user/manage_users (requires membership in \n    use @auth.requires_login()\n        @auth.requires_membership(\'group name\')\n        @auth.requires_permission(\'read\',\'table name\',record_id)\n    to decorate functions that need access control\n    """\n    return dict(form=auth())\n\n@cache.action()\ndef download():\n    """\n    allows downloading of uploaded files\n    http://..../[app]/default/download/[filename]\n    """\n    return response.download(request, db)\n\n\ndef call():\n    """\n    exposes services. for example:\n    http://..../[app]/default/call/jsonrpc\n    decorate with @services.jsonrpc the functions to expose\n    supports xml, json, xmlrpc, jsonrpc, amfrpc, rss, csv\n    """\n    return service()\n\n\n@auth.requires_signature()\ndef data():\n    """\n    http://..../[app]/default/data/tables\n    http://..../[app]/default/data/create/[table]\n    http://..../[app]/default/data/read/[table]/[id]\n    http://..../[app]/default/data/update/[table]/[id]\n    http://..../[app]/default/data/delete/[table]/[id]\n    http://..../[app]/default/data/select/[table]\n    http://..../[app]/default/data/search/[table]\n    but URLs must be signed, i.e. linked with\n      A(\'table\',_href=URL(\'data/tables\',user_signature=True))\n    or with the signed load operator\n      LOAD(\'default\',\'data.load\',args=\'tables\',ajax=True,user_signature=True)\n    """\n    return dict(form=crud())\n\nresponse._vars=response._caller(index)\n'
p7
sS'snapshot'
p8
(dp9
sS'traceback'
p10
S'Traceback (most recent call last):\n  File "/Users/kurt/temp/realpython/web2py/py2manager/gluon/restricted.py", line 212, in restricted\n    exec ccode in environment\n  File "/Users/kurt/temp/realpython/web2py/py2manager/applications/py2manager/controllers/default.py", line 76, in <module>\n  File "/Users/kurt/temp/realpython/web2py/py2manager/gluon/globals.py", line 194, in <lambda>\n    self._caller = lambda f: f()\n  File "/Users/kurt/temp/realpython/web2py/py2manager/gluon/tools.py", line 3022, in f\n    return action(*a, **b)\n  File "/Users/kurt/temp/realpython/web2py/py2manager/applications/py2manager/controllers/default.py", line 15, in index\n    projects = db(db.project).select()\n  File "/Users/kurt/temp/realpython/web2py/py2manager/gluon/dal.py", line 9958, in select\n    return adapter.select(self.query,fields,attributes)\n  File "/Users/kurt/temp/realpython/web2py/py2manager/gluon/dal.py", line 2245, in select\n    return super(SQLiteAdapter, self).select(query, fields, attributes)\n  File "/Users/kurt/temp/realpython/web2py/py2manager/gluon/dal.py", line 1704, in select\n    return self._select_aux(sql,fields,attributes)\n  File "/Users/kurt/temp/realpython/web2py/py2manager/gluon/dal.py", line 1685, in _select_aux\n    return processor(rows,fields,self._colnames,cacheable=cacheable)\n  File "/Users/kurt/temp/realpython/web2py/py2manager/gluon/dal.py", line 2055, in parse\n    value = self.parse_value(value,ft,blob_decode)\n  File "/Users/kurt/temp/realpython/web2py/py2manager/gluon/dal.py", line 1903, in parse_value\n    return self.parsemap[key](value,field_type)\n  File "/Users/kurt/temp/realpython/web2py/py2manager/gluon/dal.py", line 1909, in parse_reference\n    value._table, value._record = self.db[referee], None\n  File "/Users/kurt/temp/realpython/web2py/py2manager/gluon/dal.py", line 7895, in __getitem__\n    return self.__getattr__(str(key))\n  File "/Users/kurt/temp/realpython/web2py/py2manager/gluon/dal.py", line 7902, in __getattr__\n    return ogetattr(self, key)\nAttributeError: \'DAL\' object has no attribute \'comapny\'\n'
p11
s.